target datalayout = "e-m:e-p270:32:32-p271:32:32-p272:64:64-i64:64-i128:128-f80:128-n8:16:32:64-S128"
target triple = "x86_64-pc-linux-gnu"

; Function Attrs: nounwind uwtable
define i32 @lookup1_values(i32 noundef %0, i32 noundef %1) #0 {
  %3 = alloca i32, align 4
  %4 = alloca i32, align 4
  %5 = alloca i32, align 4
  %6 = alloca i32, align 4
  %7 = alloca i32, align 4
  store i32 %0, ptr %4, align 4, !tbaa !8
  store i32 %1, ptr %5, align 4, !tbaa !8
  call void @llvm.lifetime.start.p0(i64 4, ptr %6) #11
  %8 = load i32, ptr %4, align 4, !tbaa !8
  %9 = sitofp i32 %8 to float
  %10 = fpext float %9 to double
  %11 = call double @log(double noundef %10) #11, !tbaa !8
  %12 = fptrunc double %11 to float
  %13 = load i32, ptr %5, align 4, !tbaa !8
  %14 = sitofp i32 %13 to float
  %15 = fdiv float %12, %14
  %16 = fpext float %15 to double
  %17 = call double @exp(double noundef %16) #11, !tbaa !8
  %18 = call double @llvm.floor.f64(double %17)
  %19 = fptosi double %18 to i32
  store i32 %19, ptr %6, align 4, !tbaa !8
  %20 = load i32, ptr %6, align 4, !tbaa !8
  %21 = sitofp i32 %20 to float
  %22 = fadd float %21, 1.000000e+00
  %23 = fpext float %22 to double
  %24 = load i32, ptr %5, align 4, !tbaa !8
  %25 = sitofp i32 %24 to double
  %26 = call double @pow(double noundef %23, double noundef %25) #11, !tbaa !8
  %27 = call double @llvm.floor.f64(double %26)
  %28 = fptosi double %27 to i32
  %29 = load i32, ptr %4, align 4, !tbaa !8
  %30 = icmp sle i32 %28, %29
  br i1 %30, label %31, label %34

31:                                               ; preds = %2
  %32 = load i32, ptr %6, align 4, !tbaa !8
  %33 = add nsw i32 %32, 1
  store i32 %33, ptr %6, align 4, !tbaa !8
  br label %34

34:                                               ; preds = %31, %2
  %35 = load i32, ptr %6, align 4, !tbaa !8
  %36 = sitofp i32 %35 to float
  %37 = fadd float %36, 1.000000e+00
  %38 = fpext float %37 to double
  %39 = load i32, ptr %5, align 4, !tbaa !8
  %40 = sitofp i32 %39 to double
  %41 = call double @pow(double noundef %38, double noundef %40) #11, !tbaa !8
  %42 = load i32, ptr %4, align 4, !tbaa !8
  %43 = sitofp i32 %42 to double
  %44 = fcmp ole double %41, %43
  br i1 %44, label %45, label %46

45:                                               ; preds = %34
  store i32 -1, ptr %3, align 4
  store i32 1, ptr %7, align 4
  br label %60

46:                                               ; preds = %34
  %47 = load i32, ptr %6, align 4, !tbaa !8
  %48 = sitofp i32 %47 to float
  %49 = fpext float %48 to double
  %50 = load i32, ptr %5, align 4, !tbaa !8
  %51 = sitofp i32 %50 to double
  %52 = call double @pow(double noundef %49, double noundef %51) #11, !tbaa !8
  %53 = call double @llvm.floor.f64(double %52)
  %54 = fptosi double %53 to i32
  %55 = load i32, ptr %4, align 4, !tbaa !8
  %56 = icmp sgt i32 %54, %55
  br i1 %56, label %57, label %58

57:                                               ; preds = %46
  store i32 -1, ptr %3, align 4
  store i32 1, ptr %7, align 4
  br label %60

58:                                               ; preds = %46
  %59 = load i32, ptr %6, align 4, !tbaa !8
  store i32 %59, ptr %3, align 4
  store i32 1, ptr %7, align 4
  br label %60

60:                                               ; preds = %58, %57, %45
  call void @llvm.lifetime.end.p0(i64 4, ptr %6) #11
  %61 = load i32, ptr %3, align 4
  ret i32 %61
}