; Function Attrs: mustprogress nofree nounwind willreturn memory(write) uwtable
define i32 @lookup1_values(i32 noundef %0, i32 noundef %1) local_unnamed_addr #20 {
  %3 = sitofp i32 %0 to float
  %4 = fpext float %3 to double
  %5 = tail call double @log(double noundef %4) #35, !tbaa !21
  %6 = fptrunc double %5 to float
  %7 = sitofp i32 %1 to float
  %8 = fdiv float %6, %7
  %9 = fpext float %8 to double
  %10 = tail call double @exp(double noundef %9) #35, !tbaa !21
  %11 = tail call double @llvm.floor.f64(double %10)
  %12 = fptosi double %11 to i32
  %13 = sitofp i32 %12 to float
  %14 = fadd float %13, 1.000000e+00
  %15 = fpext float %14 to double
  %16 = sitofp i32 %1 to double
  %17 = tail call double @pow(double noundef %15, double noundef %16) #35, !tbaa !21
  %18 = tail call double @llvm.floor.f64(double %17)
  %19 = fptosi double %18 to i32
  %.not = icmp sge i32 %0, %19
  %20 = zext i1 %.not to i32
  %spec.select = add nsw i32 %20, %12
  %21 = sitofp i32 %spec.select to float
  %22 = fadd float %21, 1.000000e+00
  %23 = fpext float %22 to double
  %24 = tail call double @pow(double noundef %23, double noundef %16) #35, !tbaa !21
  %25 = sitofp i32 %0 to double
  %26 = fcmp ugt double %24, %25
  br i1 %26, label %27, label %33

27:                                               ; preds = %2
  %28 = fpext float %21 to double
  %29 = tail call double @pow(double noundef %28, double noundef %16) #35, !tbaa !21
  %30 = tail call double @llvm.floor.f64(double %29)
  %31 = fptosi double %30 to i32
  %32 = icmp slt i32 %0, %31
  %.spec.select = select i1 %32, i32 -1, i32 %spec.select
  br label %33

33:                                               ; preds = %27, %2
  %.014 = phi i32 [ -1, %2 ], [ %.spec.select, %27 ]
  ret i32 %.014
}